; Function Attrs: nounwind uwtable
define hidden void @_glfwSetWindowAspectRatioX11(ptr noundef readonly captures(none) %0, i32 noundef %1, i32 noundef %2) local_unnamed_addr #0 {
  %4 = alloca %struct.XWindowAttributes, align 8
  call void @llvm.lifetime.start.p0(i64 136, ptr nonnull %4) #17
  %5 = load ptr, ptr getelementptr inbounds nuw (i8, ptr @_glfw, i64 141664), align 8, !tbaa !175
  %6 = load ptr, ptr getelementptr inbounds nuw (i8, ptr @_glfw, i64 137840), align 8, !tbaa !93
  %7 = getelementptr inbounds nuw i8, ptr %0, i64 1248
  %8 = load i64, ptr %7, align 8, !tbaa !140
  %9 = call i32 %5(ptr noundef %6, i64 noundef %8, ptr noundef nonnull %4) #17
  %10 = getelementptr inbounds nuw i8, ptr %4, i64 8
  %11 = load i32, ptr %10, align 8, !tbaa !248
  %12 = getelementptr inbounds nuw i8, ptr %4, i64 12
  %13 = load i32, ptr %12, align 4, !tbaa !249
  call void @llvm.lifetime.end.p0(i64 136, ptr nonnull %4) #17
  call fastcc void @updateNormalHints(ptr noundef %0, i32 noundef %11, i32 noundef %13)
  %14 = load ptr, ptr getelementptr inbounds nuw (i8, ptr @_glfw, i64 141544), align 8, !tbaa !261
  %15 = load ptr, ptr getelementptr inbounds nuw (i8, ptr @_glfw, i64 137840), align 8, !tbaa !93
  %16 = call i32 %14(ptr noundef %15) #17
  ret void
}